target datalayout = "e-m:e-p270:32:32-p271:32:32-p272:64:64-i64:64-i128:128-f80:128-n8:16:32:64-S128"
target triple = "x86_64-pc-linux-gnu"

%"struct.cv::OcvDftOptions" = type <{ i32, [4 x i8], ptr, double, ptr, ptr, i32, i32, i8, i8, i8, i8, [4 x i8], ptr, i8, [7 x i8] }>
%"class.cv::Complex.13" = type { float, float }

; Function Attrs: mustprogress uwtable
define internal void @_ZN2cvL4IDCTIfEEvRKNS_13OcvDftOptionsEPKT_mPS4_S7_S7_mPKNS_7ComplexIS4_EE(ptr noundef nonnull align 8 dereferenceable(65) %0, ptr noundef %1, i64 noundef %2, ptr noundef %3, ptr noundef %4, ptr noundef %5, i64 noundef %6, ptr noundef %7) #0 {
  %9 = alloca ptr, align 8
  %10 = alloca ptr, align 8
  %11 = alloca i64, align 8
  %12 = alloca ptr, align 8
  %13 = alloca ptr, align 8
  %14 = alloca ptr, align 8
  %15 = alloca i64, align 8
  %16 = alloca ptr, align 8
  %17 = alloca i32, align 4
  %18 = alloca i32, align 4
  %19 = alloca i32, align 4
  %20 = alloca ptr, align 8
  %21 = alloca i32, align 4
  %22 = alloca float, align 4
  %23 = alloca float, align 4
  store ptr %0, ptr %9, align 8, !tbaa !170
  store ptr %1, ptr %10, align 8, !tbaa !126
  store i64 %2, ptr %11, align 8, !tbaa !118
  store ptr %3, ptr %12, align 8, !tbaa !126
  store ptr %4, ptr %13, align 8, !tbaa !126
  store ptr %5, ptr %14, align 8, !tbaa !126
  store i64 %6, ptr %15, align 8, !tbaa !118
  store ptr %7, ptr %16, align 8, !tbaa !219
  call void @llvm.lifetime.start.p0(i64 4, ptr %17) #19
  %24 = load ptr, ptr %9, align 8, !tbaa !170
  %25 = getelementptr inbounds nuw %"struct.cv::OcvDftOptions", ptr %24, i32 0, i32 7
  %26 = load i32, ptr %25, align 4, !tbaa !178
  store i32 %26, ptr %17, align 4, !tbaa !3
  call void @llvm.lifetime.start.p0(i64 4, ptr %18) #19
  call void @llvm.lifetime.start.p0(i64 4, ptr %19) #19
  %27 = load i32, ptr %17, align 4, !tbaa !3
  %28 = ashr i32 %27, 1
  store i32 %28, ptr %19, align 4, !tbaa !3
  %29 = load i64, ptr %11, align 8, !tbaa !118
  %30 = udiv i64 %29, 4
  store i64 %30, ptr %11, align 8, !tbaa !118
  %31 = load i64, ptr %15, align 8, !tbaa !118
  %32 = udiv i64 %31, 4
  store i64 %32, ptr %15, align 8, !tbaa !118
  call void @llvm.lifetime.start.p0(i64 8, ptr %20) #19
  %33 = load ptr, ptr %10, align 8, !tbaa !126
  %34 = load i32, ptr %17, align 4, !tbaa !3
  %35 = sub nsw i32 %34, 1
  %36 = sext i32 %35 to i64
  %37 = load i64, ptr %11, align 8, !tbaa !118
  %38 = mul i64 %36, %37
  %39 = getelementptr inbounds nuw float, ptr %33, i64 %38
  store ptr %39, ptr %20, align 8, !tbaa !126
  %40 = load i32, ptr %17, align 4, !tbaa !3
  %41 = icmp eq i32 %40, 1
  br i1 %41, label %42, label %48

42:                                               ; preds = %8
  %43 = load ptr, ptr %10, align 8, !tbaa !126
  %44 = getelementptr inbounds float, ptr %43, i64 0
  %45 = load float, ptr %44, align 4, !tbaa !200
  %46 = load ptr, ptr %14, align 8, !tbaa !126
  %47 = getelementptr inbounds float, ptr %46, i64 0
  store float %45, ptr %47, align 4, !tbaa !200
  store i32 1, ptr %21, align 4
  br label %174

48:                                               ; preds = %8
  %49 = load ptr, ptr %10, align 8, !tbaa !126
  %50 = getelementptr inbounds float, ptr %49, i64 0
  %51 = load float, ptr %50, align 4, !tbaa !200
  %52 = fmul float %51, 2.000000e+00
  %53 = load ptr, ptr %16, align 8, !tbaa !219
  %54 = getelementptr inbounds nuw %"class.cv::Complex.13", ptr %53, i32 0, i32 0
  %55 = load float, ptr %54, align 4, !tbaa !221
  %56 = fmul float %52, %55
  %57 = fmul float %56, 0x3FE6A09E60000000
  %58 = load ptr, ptr %12, align 8, !tbaa !126
  %59 = getelementptr inbounds float, ptr %58, i64 0
  store float %57, ptr %59, align 4, !tbaa !200
  %60 = load i64, ptr %11, align 8, !tbaa !118
  %61 = load ptr, ptr %10, align 8, !tbaa !126
  %62 = getelementptr inbounds nuw float, ptr %61, i64 %60
  store ptr %62, ptr %10, align 8, !tbaa !126
  store i32 1, ptr %18, align 4, !tbaa !3
  %63 = load ptr, ptr %16, align 8, !tbaa !219
  %64 = getelementptr inbounds nuw %"class.cv::Complex.13", ptr %63, i32 1
  store ptr %64, ptr %16, align 8, !tbaa !219
  br label %65

65:                                               ; preds = %114, %48
  %66 = load i32, ptr %18, align 4, !tbaa !3
  %67 = load i32, ptr %19, align 4, !tbaa !3
  %68 = icmp slt i32 %66, %67
  br i1 %68, label %69, label %126

69:                                               ; preds = %65
  call void @llvm.lifetime.start.p0(i64 4, ptr %22) #19
  %70 = load ptr, ptr %16, align 8, !tbaa !219
  %71 = getelementptr inbounds nuw %"class.cv::Complex.13", ptr %70, i32 0, i32 0
  %72 = load float, ptr %71, align 4, !tbaa !221
  %73 = load ptr, ptr %10, align 8, !tbaa !126
  %74 = getelementptr inbounds float, ptr %73, i64 0
  %75 = load float, ptr %74, align 4, !tbaa !200
  %76 = load ptr, ptr %16, align 8, !tbaa !219
  %77 = getelementptr inbounds nuw %"class.cv::Complex.13", ptr %76, i32 0, i32 1
  %78 = load float, ptr %77, align 4, !tbaa !223
  %79 = load ptr, ptr %20, align 8, !tbaa !126
  %80 = getelementptr inbounds float, ptr %79, i64 0
  %81 = load float, ptr %80, align 4, !tbaa !200
  %82 = fmul float %78, %81
  %83 = fneg float %82
  %84 = call float @llvm.fmuladd.f32(float %72, float %75, float %83)
  store float %84, ptr %22, align 4, !tbaa !200
  call void @llvm.lifetime.start.p0(i64 4, ptr %23) #19
  %85 = load ptr, ptr %16, align 8, !tbaa !219
  %86 = getelementptr inbounds nuw %"class.cv::Complex.13", ptr %85, i32 0, i32 1
  %87 = load float, ptr %86, align 4, !tbaa !223
  %88 = fneg float %87
  %89 = load ptr, ptr %10, align 8, !tbaa !126
  %90 = getelementptr inbounds float, ptr %89, i64 0
  %91 = load float, ptr %90, align 4, !tbaa !200
  %92 = load ptr, ptr %16, align 8, !tbaa !219
  %93 = getelementptr inbounds nuw %"class.cv::Complex.13", ptr %92, i32 0, i32 0
  %94 = load float, ptr %93, align 4, !tbaa !221
  %95 = load ptr, ptr %20, align 8, !tbaa !126
  %96 = getelementptr inbounds float, ptr %95, i64 0
  %97 = load float, ptr %96, align 4, !tbaa !200
  %98 = fmul float %94, %97
  %99 = fneg float %98
  %100 = call float @llvm.fmuladd.f32(float %88, float %91, float %99)
  store float %100, ptr %23, align 4, !tbaa !200
  %101 = load float, ptr %22, align 4, !tbaa !200
  %102 = load ptr, ptr %12, align 8, !tbaa !126
  %103 = load i32, ptr %18, align 4, !tbaa !3
  %104 = mul nsw i32 %103, 2
  %105 = sub nsw i32 %104, 1
  %106 = sext i32 %105 to i64
  %107 = getelementptr inbounds float, ptr %102, i64 %106
  store float %101, ptr %107, align 4, !tbaa !200
  %108 = load float, ptr %23, align 4, !tbaa !200
  %109 = load ptr, ptr %12, align 8, !tbaa !126
  %110 = load i32, ptr %18, align 4, !tbaa !3
  %111 = mul nsw i32 %110, 2
  %112 = sext i32 %111 to i64
  %113 = getelementptr inbounds float, ptr %109, i64 %112
  store float %108, ptr %113, align 4, !tbaa !200
  call void @llvm.lifetime.end.p0(i64 4, ptr %23) #19
  call void @llvm.lifetime.end.p0(i64 4, ptr %22) #19
  br label %114

114:                                              ; preds = %69
  %115 = load i32, ptr %18, align 4, !tbaa !3
  %116 = add nsw i32 %115, 1
  store i32 %116, ptr %18, align 4, !tbaa !3
  %117 = load ptr, ptr %16, align 8, !tbaa !219
  %118 = getelementptr inbounds nuw %"class.cv::Complex.13", ptr %117, i32 1
  store ptr %118, ptr %16, align 8, !tbaa !219
  %119 = load i64, ptr %11, align 8, !tbaa !118
  %120 = load ptr, ptr %10, align 8, !tbaa !126
  %121 = getelementptr inbounds nuw float, ptr %120, i64 %119
  store ptr %121, ptr %10, align 8, !tbaa !126
  %122 = load i64, ptr %11, align 8, !tbaa !118
  %123 = load ptr, ptr %20, align 8, !tbaa !126
  %124 = sub i64 0, %122
  %125 = getelementptr inbounds float, ptr %123, i64 %124
  store ptr %125, ptr %20, align 8, !tbaa !126
  br label %65, !llvm.loop !395

126:                                              ; preds = %65
  %127 = load ptr, ptr %10, align 8, !tbaa !126
  %128 = getelementptr inbounds float, ptr %127, i64 0
  %129 = load float, ptr %128, align 4, !tbaa !200
  %130 = fmul float %129, 2.000000e+00
  %131 = load ptr, ptr %16, align 8, !tbaa !219
  %132 = getelementptr inbounds nuw %"class.cv::Complex.13", ptr %131, i32 0, i32 0
  %133 = load float, ptr %132, align 4, !tbaa !221
  %134 = fmul float %130, %133
  %135 = load ptr, ptr %12, align 8, !tbaa !126
  %136 = load i32, ptr %17, align 4, !tbaa !3
  %137 = sub nsw i32 %136, 1
  %138 = sext i32 %137 to i64
  %139 = getelementptr inbounds float, ptr %135, i64 %138
  store float %134, ptr %139, align 4, !tbaa !200
  %140 = load ptr, ptr %9, align 8, !tbaa !170
  %141 = load ptr, ptr %12, align 8, !tbaa !126
  %142 = load ptr, ptr %13, align 8, !tbaa !126
  call void @_ZN2cvL7CCSIDFTIfEEvRKNS_13OcvDftOptionsEPKT_PS4_(ptr noundef nonnull align 8 dereferenceable(65) %140, ptr noundef %141, ptr noundef %142)
  store i32 0, ptr %18, align 4, !tbaa !3
  br label %143

143:                                              ; preds = %166, %126
  %144 = load i32, ptr %18, align 4, !tbaa !3
  %145 = load i32, ptr %19, align 4, !tbaa !3
  %146 = icmp slt i32 %144, %145
  br i1 %146, label %147, label %173

147:                                              ; preds = %143
  %148 = load ptr, ptr %13, align 8, !tbaa !126
  %149 = load i32, ptr %18, align 4, !tbaa !3
  %150 = sext i32 %149 to i64
  %151 = getelementptr inbounds float, ptr %148, i64 %150
  %152 = load float, ptr %151, align 4, !tbaa !200
  %153 = load ptr, ptr %14, align 8, !tbaa !126
  %154 = getelementptr inbounds float, ptr %153, i64 0
  store float %152, ptr %154, align 4, !tbaa !200
  %155 = load ptr, ptr %13, align 8, !tbaa !126
  %156 = load i32, ptr %17, align 4, !tbaa !3
  %157 = load i32, ptr %18, align 4, !tbaa !3
  %158 = sub nsw i32 %156, %157
  %159 = sub nsw i32 %158, 1
  %160 = sext i32 %159 to i64
  %161 = getelementptr inbounds float, ptr %155, i64 %160
  %162 = load float, ptr %161, align 4, !tbaa !200
  %163 = load ptr, ptr %14, align 8, !tbaa !126
  %164 = load i64, ptr %15, align 8, !tbaa !118
  %165 = getelementptr inbounds nuw float, ptr %163, i64 %164
  store float %162, ptr %165, align 4, !tbaa !200
  br label %166

166:                                              ; preds = %147
  %167 = load i32, ptr %18, align 4, !tbaa !3
  %168 = add nsw i32 %167, 1
  store i32 %168, ptr %18, align 4, !tbaa !3
  %169 = load i64, ptr %15, align 8, !tbaa !118
  %170 = mul i64 %169, 2
  %171 = load ptr, ptr %14, align 8, !tbaa !126
  %172 = getelementptr inbounds nuw float, ptr %171, i64 %170
  store ptr %172, ptr %14, align 8, !tbaa !126
  br label %143, !llvm.loop !396

173:                                              ; preds = %143
  store i32 0, ptr %21, align 4
  br label %174

174:                                              ; preds = %173, %42
  call void @llvm.lifetime.end.p0(i64 8, ptr %20) #19
  call void @llvm.lifetime.end.p0(i64 4, ptr %19) #19
  call void @llvm.lifetime.end.p0(i64 4, ptr %18) #19
  call void @llvm.lifetime.end.p0(i64 4, ptr %17) #19
  %175 = load i32, ptr %21, align 4
  switch i32 %175, label %177 [
    i32 0, label %176
    i32 1, label %176
  ]

176:                                              ; preds = %174, %174
  ret void

177:                                              ; preds = %174
  unreachable
}

; Function Attrs: mustprogress uwtable
define internal void @_ZN2cvL8IDCT_32fERKNS_13OcvDftOptionsEPKfmPfS5_S5_mPKNS_7ComplexIfEE(ptr noundef nonnull align 8 dereferenceable(65) %0, ptr noundef %1, i64 noundef %2, ptr noundef %3, ptr noundef %4, ptr noundef %5, i64 noundef %6, ptr noundef %7) #0 {
  %9 = alloca ptr, align 8
  %10 = alloca ptr, align 8
  %11 = alloca i64, align 8
  %12 = alloca ptr, align 8
  %13 = alloca ptr, align 8
  %14 = alloca ptr, align 8
  %15 = alloca i64, align 8
  %16 = alloca ptr, align 8
  store ptr %0, ptr %9, align 8, !tbaa !170
  store ptr %1, ptr %10, align 8, !tbaa !126
  store i64 %2, ptr %11, align 8, !tbaa !118
  store ptr %3, ptr %12, align 8, !tbaa !126
  store ptr %4, ptr %13, align 8, !tbaa !126
  store ptr %5, ptr %14, align 8, !tbaa !126
  store i64 %6, ptr %15, align 8, !tbaa !118
  store ptr %7, ptr %16, align 8, !tbaa !219
  %17 = load ptr, ptr %9, align 8, !tbaa !170
  %18 = load ptr, ptr %10, align 8, !tbaa !126
  %19 = load i64, ptr %11, align 8, !tbaa !118
  %20 = load ptr, ptr %12, align 8, !tbaa !126
  %21 = load ptr, ptr %13, align 8, !tbaa !126
  %22 = load ptr, ptr %14, align 8, !tbaa !126
  %23 = load i64, ptr %15, align 8, !tbaa !118
  %24 = load ptr, ptr %16, align 8, !tbaa !219
  call void @_ZN2cvL4IDCTIfEEvRKNS_13OcvDftOptionsEPKT_mPS4_S7_S7_mPKNS_7ComplexIS4_EE(ptr noundef nonnull align 8 dereferenceable(65) %17, ptr noundef %18, i64 noundef %19, ptr noundef %20, ptr noundef %21, ptr noundef %22, i64 noundef %23, ptr noundef %24)
  ret void
}